(dp0
S'ML.csv'
p1
(dp2
S'3'
p3
(lp4
F55.800000000000004
aF1.6
asS'2'
p5
(lp6
F54.50000000000001
aF1.6
asS'5'
p7
(lp8
F55.00000000000001
aF1.7999999999999998
asS'4'
p9
(lp10
F55.7
aF1.6
asS'7'
p11
(lp12
F54.400000000000006
aF1.4000000000000001
asS'6'
p13
(lp14
F56.3
aF1.7000000000000002
assS'EQ.csv'
p15
(dp16
g3
(lp17
F71.2
aF3.2
asg5
(lp18
F72.0
aF2.6
asg7
(lp19
F70.89999999999999
aF3.4000000000000004
asg9
(lp20
F69.39999999999999
aF3.1
asg11
(lp21
F69.5
aF2.9000000000000004
asg13
(lp22
F70.19999999999999
aF2.9000000000000004
assS'LC.csv'
p23
(dp24
g3
(lp25
F51.2
aF1.5
asg5
(lp26
F50.8
aF1.7999999999999998
asg7
(lp27
F54.7
aF2.3
asg9
(lp28
F56.699999999999996
aF2.6
asg11
(lp29
F59.3
aF2.8000000000000003
asg13
(lp30
F58.8
aF2.9000000000000004
assS'PDE.csv'
p31
(dp32
g3
(lp33
F51.9
aF1.2
asg5
(lp34
F51.2
aF1.0
asg7
(lp35
F56.00000000000001
aF1.7999999999999998
asg9
(lp36
F54.6
aF1.5
asg11
(lp37
F56.49999999999999
aF1.9
asg13
(lp38
F56.39999999999999
aF1.4000000000000001
assS'JDT.csv'
p39
(dp40
g3
(lp41
F63.9
aF1.9
asg5
(lp42
F60.099999999999994
aF1.9
asg7
(lp43
F69.6
aF2.1
asg9
(lp44
F64.60000000000001
aF1.7999999999999998
asg11
(lp45
F67.30000000000001
aF2.1999999999999997
asg13
(lp46
F68.0
aF2.1
ass.