(dp0
S'cm1.csv'
p1
(dp2
S'3'
p3
(lp4
F49.6
aF1.4000000000000001
asS'2'
p5
(lp6
F51.1
aF2.5
asS'5'
p7
(lp8
F51.6
aF2.6
asS'4'
p9
(lp10
F52.1
aF2.1999999999999997
asS'6'
p11
(lp12
F49.6
aF1.5
assS'PC4.csv'
p13
(dp14
g3
(lp15
F56.699999999999996
aF1.3
asg5
(lp16
F55.300000000000004
aF1.0999999999999999
asg7
(lp17
F55.900000000000006
aF1.9
asg9
(lp18
F60.3
aF2.5
asg11
(lp19
F54.7
aF1.5
assS'mw1.csv'
p20
(dp21
g3
(lp22
F53.0
aF5.2
asg5
(lp23
F54.800000000000004
aF5.5
asg7
(lp24
F54.50000000000001
aF6.0
asg9
(lp25
F53.1
aF4.0
asg11
(lp26
F56.00000000000001
aF5.0
assS'PC3.csv'
p27
(dp28
g3
(lp29
F52.1
aF1.4000000000000001
asg5
(lp30
F52.400000000000006
aF1.7000000000000002
asg7
(lp31
F52.400000000000006
aF1.7000000000000002
asg9
(lp32
F53.7
aF1.6
asg11
(lp33
F54.0
aF1.6
ass.