(dp0
S'xerces-1.3.csv'
p1
(dp2
S'3'
p3
(lp4
F61.7
aF3.5999999999999996
asS'2'
p5
(lp6
F63.1
aF3.3000000000000003
asS'4'
p7
(lp8
F63.4
aF4.0
assS'lucene-2.4.csv'
p9
(dp10
g3
(lp11
F56.8
aF3.4000000000000004
asg5
(lp12
F55.300000000000004
aF2.6
asg7
(lp13
F63.800000000000004
aF3.5999999999999996
assS'camel-1.6.csv'
p14
(dp15
g3
(lp16
F51.9
aF1.5
asg5
(lp17
F52.300000000000004
aF1.7999999999999998
asg7
(lp18
F53.1
aF1.6
assS'jedit-4.0.csv'
p19
(dp20
g3
(lp21
F60.3
aF4.7
asg5
(lp22
F54.6
aF3.1
asg7
(lp23
F64.1
aF4.1000000000000005
assS'ant-1.7.csv'
p24
(dp25
g3
(lp26
F56.39999999999999
aF2.0
asg5
(lp27
F56.8
aF2.0
asg7
(lp28
F63.7
aF2.5
assS'poi-3.0.csv'
p29
(dp30
g3
(lp31
F72.6
aF2.4
asg5
(lp32
F73.0
aF2.6
asg7
(lp33
F70.1
aF2.5
assS'log4j-1.0.csv'
p34
(dp35
g3
(lp36
F56.99999999999999
aF5.7
asg5
(lp37
F56.10000000000001
aF5.2
asg7
(lp38
F62.3
aF5.3
assS'ivy-1.4.csv'
p39
(dp40
g3
(lp41
F50.0
aF3.6999999999999997
asg5
(lp42
F50.0
aF3.6999999999999997
asg7
(lp43
F50.0
aF4.2
ass.