(dp0
S'xerces-1.3.csv'
p1
(dp2
S'3'
p3
(lp4
F50.0
aF0.0
asS'2'
p5
(lp6
F50.0
aF0.0
asS'4'
p7
(lp8
F63.1
aF3.6999999999999997
assS'lucene-2.4.csv'
p9
(dp10
g3
(lp11
F61.6
aF3.1
asg5
(lp12
F56.3
aF2.6
asg7
(lp13
F65.4
aF3.5999999999999996
assS'camel-1.6.csv'
p14
(dp15
g3
(lp16
F50.0
aF0.0
asg5
(lp17
F50.0
aF0.0
asg7
(lp18
F53.300000000000004
aF1.6
assS'jedit-4.0.csv'
p19
(dp20
g3
(lp21
F62.1
aF4.3999999999999995
asg5
(lp22
F65.7
aF3.2
asg7
(lp23
F62.4
aF3.5999999999999996
assS'ant-1.7.csv'
p24
(dp25
g3
(lp26
F61.8
aF2.6
asg5
(lp27
F60.099999999999994
aF2.3
asg7
(lp28
F61.5
aF2.7
assS'poi-3.0.csv'
p29
(dp30
g3
(lp31
F67.5
aF2.7
asg5
(lp32
F68.89999999999999
aF2.1
asg7
(lp33
F75.3
aF2.3
assS'log4j-1.0.csv'
p34
(dp35
g3
(lp36
F65.4
aF5.2
asg5
(lp37
F64.7
aF5.2
asg7
(lp38
F64.0
aF5.8999999999999995
assS'ivy-1.4.csv'
p39
(dp40
g3
(lp41
F54.800000000000004
aF3.4000000000000004
asg5
(lp42
F50.0
aF3.2
asg7
(lp43
F50.0
aF4.3
ass.