(dp0
S'ML.csv'
p1
(dp2
S'3'
p3
(lp4
F53.800000000000004
aF1.5
asS'2'
p5
(lp6
F53.7
aF1.3
asS'5'
p7
(lp8
F55.60000000000001
aF1.3
asS'4'
p9
(lp10
F55.800000000000004
aF1.6
asS'7'
p11
(lp12
F55.800000000000004
aF1.6
asS'6'
p13
(lp14
F56.699999999999996
aF1.5
assS'EQ.csv'
p15
(dp16
g3
(lp17
F50.0
aF0.0
asg5
(lp18
F50.0
aF0.0
asg7
(lp19
F68.4
aF3.5999999999999996
asg9
(lp20
F50.0
aF0.0
asg11
(lp21
F70.19999999999999
aF2.5
asg13
(lp22
F72.2
aF3.0
assS'LC.csv'
p23
(dp24
g3
(lp25
F61.4
aF3.6999999999999997
asg5
(lp26
F59.199999999999996
aF3.1
asg7
(lp27
F59.199999999999996
aF3.5999999999999996
asg9
(lp28
F60.699999999999996
aF3.0
asg11
(lp29
F60.099999999999994
aF3.0
asg13
(lp30
F61.1
aF2.3
assS'PDE.csv'
p31
(dp32
g3
(lp33
F56.8
aF1.6
asg5
(lp34
F54.50000000000001
aF1.6
asg7
(lp35
F56.99999999999999
aF1.7000000000000002
asg9
(lp36
F56.99999999999999
aF1.3
asg11
(lp37
F57.4
aF1.4000000000000001
asg13
(lp38
F57.8
aF1.9
assS'JDT.csv'
p39
(dp40
g3
(lp41
F66.8
aF2.4
asg5
(lp42
F67.10000000000001
aF2.1
asg7
(lp43
F70.3
aF2.0
asg9
(lp44
F68.2
aF2.0
asg11
(lp45
F71.0
aF2.1999999999999997
asg13
(lp46
F70.7
aF2.5
ass.