(dp0
S'cm1.csv'
p1
(dp2
S'3'
p3
(lp4
F51.5
aF2.4
asS'2'
p5
(lp6
F54.7
aF3.1
asS'5'
p7
(lp8
F51.800000000000004
aF3.1
asS'4'
p9
(lp10
F51.9
aF3.1
asS'6'
p11
(lp12
F50.6
aF2.1
assS'PC4.csv'
p13
(dp14
g3
(lp15
F50.0
aF0.0
asg5
(lp16
F50.0
aF0.0
asg7
(lp17
F50.0
aF0.0
asg9
(lp18
F50.0
aF0.0
asg11
(lp19
F50.7
aF0.7000000000000001
assS'mw1.csv'
p20
(dp21
g3
(lp22
F52.300000000000004
aF3.9
asg5
(lp23
F53.300000000000004
aF4.9
asg7
(lp24
F55.60000000000001
aF5.2
asg9
(lp25
F54.900000000000006
aF4.7
asg11
(lp26
F55.800000000000004
aF5.0
assS'PC3.csv'
p27
(dp28
g3
(lp29
F53.5
aF1.7000000000000002
asg5
(lp30
F52.1
aF1.6
asg7
(lp31
F53.7
aF2.1
asg9
(lp32
F55.00000000000001
aF2.0
asg11
(lp33
F55.400000000000006
aF1.7999999999999998
ass.