(dp0
S'cm1.csv'
p1
(dp2
S'3'
p3
(lp4
F50.0
aF0.0
asS'2'
p5
(lp6
F50.0
aF0.2
asS'5'
p7
(lp8
F53.2
aF3.1
asS'4'
p9
(lp10
F52.6
aF2.1
asS'6'
p11
(lp12
F50.6
aF2.1
assS'PC4.csv'
p13
(dp14
g3
(lp15
F50.0
aF0.1
asg5
(lp16
F50.0
aF0.1
asg7
(lp17
F52.800000000000004
aF1.4000000000000001
asg9
(lp18
F50.6
aF0.8
asg11
(lp19
F53.1
aF1.6
assS'mw1.csv'
p20
(dp21
g3
(lp22
F50.8
aF3.8
asg5
(lp23
F50.0
aF0.0
asg7
(lp24
F56.89999999999999
aF5.7
asg9
(lp25
F53.2
aF5.0
asg11
(lp26
F57.199999999999996
aF5.2
assS'PC3.csv'
p27
(dp28
g3
(lp29
F50.0
aF0.1
asg5
(lp30
F50.0
aF0.4
asg7
(lp31
F50.0
aF0.0
asg9
(lp32
F50.0
aF0.1
asg11
(lp33
F55.900000000000006
aF2.1999999999999997
ass.