(dp0
S'xerces-1.3.csv'
p1
(dp2
S'3'
p3
(lp4
F53.6
aF2.6
asS'2'
p5
(lp6
F50.0
aF1.4000000000000001
asS'4'
p7
(lp8
F55.60000000000001
aF2.4
assS'lucene-2.4.csv'
p9
(dp10
g3
(lp11
F50.0
aF0.3
asg5
(lp12
F50.0
aF0.0
asg7
(lp13
F63.6
aF3.8
assS'camel-1.6.csv'
p14
(dp15
g3
(lp16
F50.6
aF0.8
asg5
(lp17
F50.2
aF0.6
asg7
(lp18
F51.6
aF1.4000000000000001
assS'jedit-4.0.csv'
p19
(dp20
g3
(lp21
F50.0
aF0.0
asg5
(lp22
F50.0
aF0.0
asg7
(lp23
F61.5
aF3.9
assS'ant-1.7.csv'
p24
(dp25
g3
(lp26
F50.4
aF0.4
asg5
(lp27
F50.0
aF0.3
asg7
(lp28
F50.0
aF0.2
assS'poi-3.0.csv'
p29
(dp30
g3
(lp31
F50.0
aF0.2
asg5
(lp32
F50.0
aF0.2
asg7
(lp33
F65.10000000000001
aF2.7
assS'log4j-1.0.csv'
p34
(dp35
g3
(lp36
F50.0
aF1.0999999999999999
asg5
(lp37
F50.0
aF0.2
asg7
(lp38
F65.9
aF6.3
assS'ivy-1.4.csv'
p39
(dp40
g3
(lp41
F50.0
aF1.7999999999999998
asg5
(lp42
F50.0
aF3.5000000000000004
asg7
(lp43
F50.0
aF4.3
ass.