(dp0
S'ML.csv'
p1
(dp2
S'3'
p3
(lp4
F51.7
aF0.8
asS'2'
p5
(lp6
F51.9
aF1.0999999999999999
asS'5'
p7
(lp8
F50.0
aF0.0
asS'4'
p9
(lp10
F53.900000000000006
aF1.2
asS'7'
p11
(lp12
F57.699999999999996
aF1.7999999999999998
asS'6'
p13
(lp14
F56.49999999999999
aF1.7999999999999998
assS'EQ.csv'
p15
(dp16
g3
(lp17
F60.6
aF3.3000000000000003
asg5
(lp18
F67.10000000000001
aF3.2
asg7
(lp19
F69.6
aF2.9000000000000004
asg9
(lp20
F65.5
aF4.0
asg11
(lp21
F71.1
aF2.4
asg13
(lp22
F70.39999999999999
aF2.9000000000000004
assS'LC.csv'
p23
(dp24
g3
(lp25
F50.0
aF0.0
asg5
(lp26
F50.0
aF0.0
asg7
(lp27
F57.4
aF2.7
asg9
(lp28
F50.0
aF0.0
asg11
(lp29
F59.9
aF2.1999999999999997
asg13
(lp30
F58.5
aF2.7
assS'PDE.csv'
p31
(dp32
g3
(lp33
F50.0
aF0.3
asg5
(lp34
F50.4
aF0.4
asg7
(lp35
F50.0
aF0.3
asg9
(lp36
F50.5
aF0.4
asg11
(lp37
F57.099999999999994
aF1.6
asg13
(lp38
F57.49999999999999
aF1.9
assS'JDT.csv'
p39
(dp40
g3
(lp41
F50.0
aF0.2
asg5
(lp42
F50.0
aF0.3
asg7
(lp43
F67.2
aF2.0
asg9
(lp44
F50.0
aF0.2
asg11
(lp45
F69.8
aF2.7
asg13
(lp46
F69.89999999999999
aF2.6
ass.