(dp0
S'xerces-1.3.csv'
p1
(lp2
F66.4
aF3.5000000000000004
asS'lucene-2.4.csv'
p3
(lp4
F68.2
aF3.2
asS'camel-1.6.csv'
p5
(lp6
F56.10000000000001
aF1.7000000000000002
asS'jedit-4.0.csv'
p7
(lp8
F69.19999999999999
aF4.8
asS'ant-1.7.csv'
p9
(lp10
F68.4
aF2.5
asS'poi-3.0.csv'
p11
(lp12
F78.0
aF2.4
asS'log4j-1.0.csv'
p13
(lp14
F69.6
aF4.8
asS'ivy-1.4.csv'
p15
(lp16
F50.0
aF0.3
as.