(dp0
S'xerces-1.3.csv'
p1
(dp2
S'3'
p3
(lp4
F50.0
aF0.3
asS'2'
p5
(lp6
F50.0
aF0.2
asS'4'
p7
(lp8
F50.0
aF0.6
assS'lucene-2.4.csv'
p9
(dp10
g3
(lp11
F50.0
aF0.3
asg5
(lp12
F50.0
aF0.3
asg7
(lp13
F64.8
aF3.4000000000000004
assS'camel-1.6.csv'
p14
(dp15
g3
(lp16
F50.0
aF0.1
asg5
(lp17
F50.0
aF0.1
asg7
(lp18
F50.0
aF0.2
assS'jedit-4.0.csv'
p19
(dp20
g3
(lp21
F50.0
aF0.0
asg5
(lp22
F50.0
aF0.0
asg7
(lp23
F61.6
aF4.0
assS'ant-1.7.csv'
p24
(dp25
g3
(lp26
F50.0
aF0.3
asg5
(lp27
F50.0
aF0.3
asg7
(lp28
F50.0
aF0.1
assS'poi-3.0.csv'
p29
(dp30
g3
(lp31
F50.0
aF0.2
asg5
(lp32
F50.0
aF0.0
asg7
(lp33
F65.9
aF2.9000000000000004
assS'log4j-1.0.csv'
p34
(dp35
g3
(lp36
F50.0
aF0.8999999999999999
asg5
(lp37
F50.0
aF1.3
asg7
(lp38
F66.9
aF5.5
assS'ivy-1.4.csv'
p39
(dp40
g3
(lp41
F50.0
aF0.0
asg5
(lp42
F50.0
aF2.7
asg7
(lp43
F49.6
aF4.3
ass.