(dp0
S'cm1.csv'
p1
(dp2
S'3'
p3
(lp4
F50.0
aF0.1
asS'2'
p5
(lp6
F50.0
aF0.0
asS'5'
p7
(lp8
F52.7
aF3.2
asS'4'
p9
(lp10
F53.6
aF3.8
asS'6'
p11
(lp12
F51.1
aF2.3
assS'PC4.csv'
p13
(dp14
g3
(lp15
F50.0
aF0.0
asg5
(lp16
F50.0
aF0.0
asg7
(lp17
F50.0
aF0.0
asg9
(lp18
F50.0
aF0.0
asg11
(lp19
F50.0
aF0.0
assS'mw1.csv'
p20
(dp21
g3
(lp22
F51.7
aF2.9000000000000004
asg5
(lp23
F50.0
aF0.0
asg7
(lp24
F54.900000000000006
aF5.1
asg9
(lp25
F56.10000000000001
aF5.2
asg11
(lp26
F57.699999999999996
aF5.0
assS'PC3.csv'
p27
(dp28
g3
(lp29
F50.0
aF0.1
asg5
(lp30
F50.0
aF0.2
asg7
(lp31
F50.0
aF0.0
asg9
(lp32
F50.0
aF0.0
asg11
(lp33
F55.800000000000004
aF2.3
ass.