(dp0
S'ML.csv'
p1
(dp2
S'3'
p3
(lp4
F50.0
aF0.0
asS'2'
p5
(lp6
F50.0
aF0.2
asS'5'
p7
(lp8
F50.0
aF0.0
asS'4'
p9
(lp10
F50.0
aF0.0
asS'7'
p11
(lp12
F57.49999999999999
aF1.6
asS'6'
p13
(lp14
F56.699999999999996
aF1.7000000000000002
assS'EQ.csv'
p15
(dp16
g3
(lp17
F50.0
aF1.3
asg5
(lp18
F50.0
aF1.4000000000000001
asg7
(lp19
F67.9
aF2.5
asg9
(lp20
F50.0
aF0.8999999999999999
asg11
(lp21
F71.2
aF3.1
asg13
(lp22
F71.39999999999999
aF2.5
assS'LC.csv'
p23
(dp24
g3
(lp25
F50.0
aF0.0
asg5
(lp26
F50.0
aF0.0
asg7
(lp27
F57.3
aF2.8000000000000003
asg9
(lp28
F50.0
aF0.0
asg11
(lp29
F58.699999999999996
aF3.5000000000000004
asg13
(lp30
F59.0
aF3.3000000000000003
assS'PDE.csv'
p31
(dp32
g3
(lp33
F50.0
aF0.3
asg5
(lp34
F50.2
aF0.4
asg7
(lp35
F50.5
aF0.4
asg9
(lp36
F50.2
aF0.4
asg11
(lp37
F57.199999999999996
aF1.5
asg13
(lp38
F57.3
aF1.7000000000000002
assS'JDT.csv'
p39
(dp40
g3
(lp41
F49.9
aF0.2
asg5
(lp42
F50.4
aF0.4
asg7
(lp43
F66.5
aF2.0
asg9
(lp44
F50.0
aF0.0
asg11
(lp45
F69.8
aF2.4
asg13
(lp46
F69.69999999999999
aF2.1999999999999997
ass.